; Function Attrs: nofree norecurse nosync nounwind memory(argmem: readwrite) uwtable
define internal noundef i32 @dxt5ys_block(ptr noundef captures(none) %0, i64 noundef %1, ptr noundef readonly captures(none) %2) #1 {
  tail call fastcc void @dxt5_block_internal(ptr noundef %0, i64 noundef %1, ptr noundef %2)
  br label %.preheader

.preheader:                                       ; preds = %3, %29
  %indvars.iv23 = phi i64 [ 0, %3 ], [ %indvars.iv.next24, %29 ]
  %4 = mul nsw i64 %1, %indvars.iv23
  %invariant.gep = getelementptr i8, ptr %0, i64 %4
  br label %5

5:                                                ; preds = %.preheader, %5
  %indvars.iv = phi i64 [ 0, %.preheader ], [ %indvars.iv.next, %5 ]
  %6 = shl nuw nsw i64 %indvars.iv, 2
  %gep = getelementptr i8, ptr %invariant.gep, i64 %6
  %7 = load i8, ptr %gep, align 1, !tbaa !23
  %8 = getelementptr inbounds nuw i8, ptr %gep, i64 1
  %9 = load i8, ptr %8, align 1, !tbaa !23
  %10 = getelementptr inbounds nuw i8, ptr %gep, i64 2
  %11 = load i8, ptr %10, align 1, !tbaa !23
  %12 = getelementptr inbounds nuw i8, ptr %gep, i64 3
  %13 = load i8, ptr %12, align 1, !tbaa !23
  %14 = zext i8 %13 to i32
  %15 = lshr i8 %11, 3
  %narrow.i = add nuw nsw i8 %15, 1
  %.lhs.trunc = xor i8 %7, -128
  %16 = sdiv i8 %.lhs.trunc, %narrow.i
  %.sext = sext i8 %16 to i32
  %.lhs.trunc17 = xor i8 %9, -128
  %17 = sdiv i8 %.lhs.trunc17, %narrow.i
  %.sext19 = sext i8 %17 to i32
  %18 = add nsw i32 %.sext, %14
  %19 = sub nsw i32 %18, %.sext19
  %.not.i14 = icmp ult i32 %19, 256
  %isnotneg.i15 = icmp sgt i32 %19, -1
  %20 = sext i1 %isnotneg.i15 to i8
  %21 = trunc nuw i32 %19 to i8
  %.0.i16 = select i1 %.not.i14, i8 %21, i8 %20
  store i8 %.0.i16, ptr %gep, align 1, !tbaa !23
  %22 = add nsw i32 %.sext19, %14
  %.not.i11 = icmp ult i32 %22, 256
  %isnotneg.i12 = icmp sgt i32 %22, -1
  %23 = sext i1 %isnotneg.i12 to i8
  %24 = trunc nuw i32 %22 to i8
  %.0.i13 = select i1 %.not.i11, i8 %24, i8 %23
  store i8 %.0.i13, ptr %8, align 1, !tbaa !23
  %25 = add nsw i32 %.sext, %.sext19
  %26 = sub nsw i32 %14, %25
  %.not.i = icmp ult i32 %26, 256
  %isnotneg.i = icmp sgt i32 %26, -1
  %27 = sext i1 %isnotneg.i to i8
  %28 = trunc nuw i32 %26 to i8
  %.0.i = select i1 %.not.i, i8 %28, i8 %27
  store i8 %.0.i, ptr %10, align 1, !tbaa !23
  store i8 -1, ptr %12, align 1, !tbaa !23
  %indvars.iv.next = add nuw nsw i64 %indvars.iv, 1
  %exitcond.not = icmp eq i64 %indvars.iv.next, 4
  br i1 %exitcond.not, label %29, label %5, !llvm.loop !31

29:                                               ; preds = %5
  %indvars.iv.next24 = add nuw nsw i64 %indvars.iv23, 1
  %exitcond26.not = icmp eq i64 %indvars.iv.next24, 4
  br i1 %exitcond26.not, label %30, label %.preheader, !llvm.loop !32

30:                                               ; preds = %29
  ret i32 16
}